target datalayout = "e-m:e-p270:32:32-p271:32:32-p272:64:64-i64:64-i128:128-f80:128-n8:16:32:64-S128"
target triple = "x86_64-pc-linux-gnu"

%"class.base::time_internal::TimeBase" = type { i64 }
%struct.timeval = type { i64, i64 }

; Function Attrs: mustprogress nounwind uwtable
define linkonce_odr noundef i64 @_ZNSt14numeric_limitsIlE3maxEv() #5 comdat align 2 {
  ret i64 9223372036854775807
}

; Function Attrs: mustprogress nounwind uwtable
define linkonce_odr noundef zeroext i1 @_ZNK4base13time_internal8TimeBaseINS_4TimeEE6is_maxEv(ptr noundef nonnull align 8 dereferenceable(8) %0) #5 comdat align 2 {
  %2 = alloca ptr, align 8
  store ptr %0, ptr %2, align 8, !tbaa !76
  %3 = load ptr, ptr %2, align 8
  %4 = getelementptr inbounds nuw %"class.base::time_internal::TimeBase", ptr %3, i32 0, i32 0
  %5 = load i64, ptr %4, align 8, !tbaa !32
  %6 = call noundef i64 @_ZNSt14numeric_limitsIlE3maxEv() #11
  %7 = icmp eq i64 %5, %6
  ret i1 %7
}

; Function Attrs: mustprogress nounwind uwtable
define linkonce_odr noundef zeroext i1 @_ZNK4base13time_internal8TimeBaseINS_4TimeEE7is_nullEv(ptr noundef nonnull align 8 dereferenceable(8) %0) #5 comdat align 2 {
  %2 = alloca ptr, align 8
  store ptr %0, ptr %2, align 8, !tbaa !76
  %3 = load ptr, ptr %2, align 8
  %4 = getelementptr inbounds nuw %"class.base::time_internal::TimeBase", ptr %3, i32 0, i32 0
  %5 = load i64, ptr %4, align 8, !tbaa !32
  %6 = icmp eq i64 %5, 0
  ret i1 %6
}

; Function Attrs: mustprogress uwtable
define { i64, i64 } @_ZNK4base4Time9ToTimeValEv(ptr noundef nonnull align 8 dereferenceable(8) %0) #0 align 2 {
  %2 = alloca %struct.timeval, align 8
  %3 = alloca ptr, align 8
  %4 = alloca i64, align 8
  store ptr %0, ptr %3, align 8, !tbaa !26
  %5 = load ptr, ptr %3, align 8
  %6 = call noundef zeroext i1 @_ZNK4base13time_internal8TimeBaseINS_4TimeEE7is_nullEv(ptr noundef nonnull align 8 dereferenceable(8) %5)
  br i1 %6, label %7, label %10

7:                                                ; preds = %1
  %8 = getelementptr inbounds nuw %struct.timeval, ptr %2, i32 0, i32 0
  store i64 0, ptr %8, align 8, !tbaa !13
  %9 = getelementptr inbounds nuw %struct.timeval, ptr %2, i32 0, i32 1
  store i64 0, ptr %9, align 8, !tbaa !15
  br label %26

10:                                               ; preds = %1
  %11 = call noundef zeroext i1 @_ZNK4base13time_internal8TimeBaseINS_4TimeEE6is_maxEv(ptr noundef nonnull align 8 dereferenceable(8) %5)
  br i1 %11, label %12, label %16

12:                                               ; preds = %10
  %13 = call noundef i64 @_ZNSt14numeric_limitsIlE3maxEv() #11
  %14 = getelementptr inbounds nuw %struct.timeval, ptr %2, i32 0, i32 0
  store i64 %13, ptr %14, align 8, !tbaa !13
  %15 = getelementptr inbounds nuw %struct.timeval, ptr %2, i32 0, i32 1
  store i64 999999, ptr %15, align 8, !tbaa !15
  br label %26

16:                                               ; preds = %10
  call void @llvm.lifetime.start.p0(i64 8, ptr %4) #11
  %17 = getelementptr inbounds nuw %"class.base::time_internal::TimeBase", ptr %5, i32 0, i32 0
  %18 = load i64, ptr %17, align 8, !tbaa !32
  %19 = sub nsw i64 %18, 11644473600000000
  store i64 %19, ptr %4, align 8, !tbaa !8
  %20 = load i64, ptr %4, align 8, !tbaa !8
  %21 = sdiv i64 %20, 1000000
  %22 = getelementptr inbounds nuw %struct.timeval, ptr %2, i32 0, i32 0
  store i64 %21, ptr %22, align 8, !tbaa !13
  %23 = load i64, ptr %4, align 8, !tbaa !8
  %24 = srem i64 %23, 1000000
  %25 = getelementptr inbounds nuw %struct.timeval, ptr %2, i32 0, i32 1
  store i64 %24, ptr %25, align 8, !tbaa !15
  call void @llvm.lifetime.end.p0(i64 8, ptr %4) #11
  br label %26

26:                                               ; preds = %16, %12, %7
  %27 = load { i64, i64 }, ptr %2, align 8
  ret { i64, i64 } %27
}