; Function Attrs: mustprogress nofree norecurse nosync nounwind willreturn memory(argmem: read) uwtable
define { i64, i64 } @_ZNK4base4Time9ToTimeValEv(ptr noundef nonnull readonly align 8 captures(none) dereferenceable(8) %0) local_unnamed_addr #8 align 2 {
  %2 = load i64, ptr %0, align 8, !tbaa !9
  switch i64 %2, label %3 [
    i64 0, label %7
    i64 9223372036854775807, label %.fold.split
  ]

3:                                                ; preds = %1
  %4 = add nsw i64 %2, -11644473600000000
  %5 = sdiv i64 %4, 1000000
  %6 = srem i64 %4, 1000000
  br label %7

.fold.split:                                      ; preds = %1
  br label %7

7:                                                ; preds = %1, %.fold.split, %3
  %.sroa.0.0 = phi i64 [ %5, %3 ], [ %2, %1 ], [ %2, %.fold.split ]
  %.sroa.4.0 = phi i64 [ %6, %3 ], [ %2, %1 ], [ 999999, %.fold.split ]
  %.fca.0.insert = insertvalue { i64, i64 } poison, i64 %.sroa.0.0, 0
  %.fca.1.insert = insertvalue { i64, i64 } %.fca.0.insert, i64 %.sroa.4.0, 1
  ret { i64, i64 } %.fca.1.insert
}